target datalayout = "e-m:e-p270:32:32-p271:32:32-p272:64:64-i64:64-i128:128-f80:128-n8:16:32:64-S128"
target triple = "x86_64-unknown-linux-gnu"

%struct.in6_addr = type { %union.anon }
%union.anon = type { [4 x i32] }
%struct.sockaddr = type { i16, [14 x i8] }
%struct.sockaddr_in = type { i16, i16, %struct.in_addr, [8 x i8] }
%struct.in_addr = type { i32 }
%struct.sockaddr_in6 = type { i16, i16, i32, %struct.in6_addr, i32 }

; Function Attrs: mustprogress nounwind uwtable
define noundef i32 @_ZNK3zmq9ip_addr_t6familyEv(ptr noundef nonnull align 4 dereferenceable(28) %this) #0 align 2 {
entry:
  %this.addr = alloca ptr, align 8
  store ptr %this, ptr %this.addr, align 8
  %this1 = load ptr, ptr %this.addr, align 8
  %sa_family = getelementptr inbounds %struct.sockaddr, ptr %this1, i32 0, i32 0
  %0 = load i16, ptr %sa_family, align 4
  %conv = zext i16 %0 to i32
  ret i32 %conv
}

; Function Attrs: mustprogress nounwind uwtable
define noundef zeroext i1 @_ZNK3zmq9ip_addr_t12is_multicastEv(ptr noundef nonnull align 4 dereferenceable(28) %this) #0 align 2 {
entry:
  %retval = alloca i1, align 1
  %this.addr = alloca ptr, align 8
  store ptr %this, ptr %this.addr, align 8
  %this1 = load ptr, ptr %this.addr, align 8
  %call = call noundef i32 @_ZNK3zmq9ip_addr_t6familyEv(ptr noundef nonnull align 4 dereferenceable(28) %this1)
  %cmp = icmp eq i32 %call, 2
  br i1 %cmp, label %if.then, label %if.end

if.then:                                          ; preds = %entry
  %sin_addr = getelementptr inbounds %struct.sockaddr_in, ptr %this1, i32 0, i32 2
  %s_addr = getelementptr inbounds %struct.in_addr, ptr %sin_addr, i32 0, i32 0
  %0 = load i32, ptr %s_addr, align 4
  %call2 = call i32 @ntohl(i32 noundef %0) #9
  %and = and i32 %call2, -268435456
  %cmp3 = icmp eq i32 %and, -536870912
  store i1 %cmp3, ptr %retval, align 1
  br label %return

if.end:                                           ; preds = %entry
  %sin6_addr = getelementptr inbounds %struct.sockaddr_in6, ptr %this1, i32 0, i32 3
  %arrayidx = getelementptr inbounds i8, ptr %sin6_addr, i64 0
  %1 = load i8, ptr %arrayidx, align 4
  %conv = zext i8 %1 to i32
  %cmp4 = icmp eq i32 %conv, 255
  %conv5 = zext i1 %cmp4 to i32
  %cmp6 = icmp ne i32 %conv5, 0
  store i1 %cmp6, ptr %retval, align 1
  br label %return

return:                                           ; preds = %if.end, %if.then
  %2 = load i1, ptr %retval, align 1
  ret i1 %2
}