; Function Attrs: mustprogress nofree nosync nounwind willreturn memory(argmem: read) uwtable
define noundef zeroext i1 @_ZNK3zmq9ip_addr_t12is_multicastEv(ptr nocapture noundef nonnull readonly align 4 dereferenceable(28) %this) local_unnamed_addr #1 align 2 {
entry:
  %0 = load i16, ptr %this, align 4
  %cmp = icmp eq i16 %0, 2
  br i1 %cmp, label %if.then, label %if.end

if.then:                                          ; preds = %entry
  %sin_addr = getelementptr inbounds i8, ptr %this, i64 4
  %1 = load i32, ptr %sin_addr, align 4
  %call2 = tail call i32 @ntohl(i32 noundef %1) #17
  %and = and i32 %call2, -268435456
  %cmp3 = icmp eq i32 %and, -536870912
  br label %return

if.end:                                           ; preds = %entry
  %sin6_addr = getelementptr inbounds i8, ptr %this, i64 8
  %2 = load i8, ptr %sin6_addr, align 4
  %cmp4 = icmp eq i8 %2, -1
  br label %return

return:                                           ; preds = %if.end, %if.then
  %retval.0 = phi i1 [ %cmp3, %if.then ], [ %cmp4, %if.end ]
  ret i1 %retval.0
}